target datalayout = "e-m:e-p270:32:32-p271:32:32-p272:64:64-i64:64-i128:128-f80:128-n8:16:32:64-S128"
target triple = "x86_64-unknown-linux-gnu"

%"class.icu_75::StringMatcher" = type <{ %"class.icu_75::UnicodeFunctor", %"class.icu_75::UnicodeMatcher", %"class.icu_75::UnicodeReplacer", %"class.icu_75::UnicodeString", ptr, i32, i32, i32, [4 x i8] }>
%"class.icu_75::UnicodeFunctor" = type { %"class.icu_75::UObject" }
%"class.icu_75::UObject" = type { ptr }
%"class.icu_75::UnicodeMatcher" = type { ptr }
%"class.icu_75::UnicodeReplacer" = type { ptr }
%"class.icu_75::UnicodeString" = type { %"class.icu_75::Replaceable", %"union.icu_75::UnicodeString::StackBufferOrFields" }
%"class.icu_75::Replaceable" = type { %"class.icu_75::UObject" }
%"union.icu_75::UnicodeString::StackBufferOrFields" = type { %struct.anon.0, [32 x i8] }
%struct.anon.0 = type { i16, i32, i32, ptr }
%struct.anon = type { i16, [27 x i16] }

@_ZTVN6icu_757UObjectE = external unnamed_addr constant { [5 x ptr] }, align 8
@_ZTVN6icu_7513UnicodeStringE = external unnamed_addr constant { [13 x ptr] }, align 8
@_ZTVN6icu_7511ReplaceableE = external unnamed_addr constant { [13 x ptr] }, align 8

; Function Attrs: mustprogress nounwind uwtable
define linkonce_odr void @_ZN6icu_757UObjectC2Ev(ptr noundef nonnull align 8 dereferenceable(8) %this) unnamed_addr #0 comdat align 2 {
entry:
  %this.addr = alloca ptr, align 8
  store ptr %this, ptr %this.addr, align 8
  %this1 = load ptr, ptr %this.addr, align 8
  store ptr getelementptr inbounds ({ [5 x ptr] }, ptr @_ZTVN6icu_757UObjectE, i32 0, i32 0, i32 2), ptr %this1, align 8
  ret void
}

; Function Attrs: mustprogress nounwind uwtable
define linkonce_odr void @_ZN6icu_7511ReplaceableC2Ev(ptr noundef nonnull align 8 dereferenceable(8) %this) unnamed_addr #0 comdat align 2 {
entry:
  %this.addr = alloca ptr, align 8
  store ptr %this, ptr %this.addr, align 8
  %this1 = load ptr, ptr %this.addr, align 8
  call void @_ZN6icu_757UObjectC2Ev(ptr noundef nonnull align 8 dereferenceable(8) %this1) #9
  store ptr getelementptr inbounds ({ [13 x ptr] }, ptr @_ZTVN6icu_7511ReplaceableE, i32 0, i32 0, i32 2), ptr %this1, align 8
  ret void
}

; Function Attrs: mustprogress uwtable
define linkonce_odr void @_ZN6icu_7513UnicodeStringC2Ev(ptr noundef nonnull align 8 dereferenceable(64) %this) unnamed_addr #1 comdat align 2 {
entry:
  %this.addr = alloca ptr, align 8
  store ptr %this, ptr %this.addr, align 8
  %this1 = load ptr, ptr %this.addr, align 8
  call void @_ZN6icu_7511ReplaceableC2Ev(ptr noundef nonnull align 8 dereferenceable(8) %this1)
  store ptr getelementptr inbounds ({ [13 x ptr] }, ptr @_ZTVN6icu_7513UnicodeStringE, i32 0, i32 0, i32 2), ptr %this1, align 8
  %fUnion2 = getelementptr inbounds %"class.icu_75::UnicodeString", ptr %this1, i32 0, i32 1
  %fLengthAndFlags = getelementptr inbounds %struct.anon, ptr %fUnion2, i32 0, i32 0
  store i16 2, ptr %fLengthAndFlags, align 8
  ret void
}

; Function Attrs: mustprogress uwtable
define noundef i32 @_ZN6icu_7513StringMatcher7replaceERNS_11ReplaceableEiiRi(ptr noundef nonnull align 8 dereferenceable(108) %this, ptr noundef nonnull align 8 dereferenceable(8) %text, i32 noundef %start, i32 noundef %limit, ptr noundef nonnull align 4 dereferenceable(4) %0) unnamed_addr #1 align 2 personality ptr @__gxx_personality_v0 {
entry:
  %this.addr = alloca ptr, align 8
  %text.addr = alloca ptr, align 8
  %start.addr = alloca i32, align 4
  %limit.addr = alloca i32, align 4
  %.addr = alloca ptr, align 8
  %outLen = alloca i32, align 4
  %dest = alloca i32, align 4
  %ref.tmp = alloca %"class.icu_75::UnicodeString", align 8
  %exn.slot = alloca ptr, align 8
  %ehselector.slot = alloca i32, align 4
  store ptr %this, ptr %this.addr, align 8
  store ptr %text, ptr %text.addr, align 8
  store i32 %start, ptr %start.addr, align 4
  store i32 %limit, ptr %limit.addr, align 4
  store ptr %0, ptr %.addr, align 8
  %this1 = load ptr, ptr %this.addr, align 8
  store i32 0, ptr %outLen, align 4
  %1 = load i32, ptr %limit.addr, align 4
  store i32 %1, ptr %dest, align 4
  %matchStart = getelementptr inbounds %"class.icu_75::StringMatcher", ptr %this1, i32 0, i32 6
  %2 = load i32, ptr %matchStart, align 4
  %cmp = icmp sge i32 %2, 0
  br i1 %cmp, label %if.then, label %if.end9

if.then:                                          ; preds = %entry
  %matchStart2 = getelementptr inbounds %"class.icu_75::StringMatcher", ptr %this1, i32 0, i32 6
  %3 = load i32, ptr %matchStart2, align 4
  %matchLimit = getelementptr inbounds %"class.icu_75::StringMatcher", ptr %this1, i32 0, i32 7
  %4 = load i32, ptr %matchLimit, align 8
  %cmp3 = icmp ne i32 %3, %4
  br i1 %cmp3, label %if.then4, label %if.end

if.then4:                                         ; preds = %if.then
  %5 = load ptr, ptr %text.addr, align 8
  %matchStart5 = getelementptr inbounds %"class.icu_75::StringMatcher", ptr %this1, i32 0, i32 6
  %6 = load i32, ptr %matchStart5, align 4
  %matchLimit6 = getelementptr inbounds %"class.icu_75::StringMatcher", ptr %this1, i32 0, i32 7
  %7 = load i32, ptr %matchLimit6, align 8
  %8 = load i32, ptr %dest, align 4
  %vtable = load ptr, ptr %5, align 8
  %vfn = getelementptr inbounds ptr, ptr %vtable, i64 5
  %9 = load ptr, ptr %vfn, align 8
  call void %9(ptr noundef nonnull align 8 dereferenceable(8) %5, i32 noundef %6, i32 noundef %7, i32 noundef %8)
  %matchLimit7 = getelementptr inbounds %"class.icu_75::StringMatcher", ptr %this1, i32 0, i32 7
  %10 = load i32, ptr %matchLimit7, align 8
  %matchStart8 = getelementptr inbounds %"class.icu_75::StringMatcher", ptr %this1, i32 0, i32 6
  %11 = load i32, ptr %matchStart8, align 4
  %sub = sub nsw i32 %10, %11
  store i32 %sub, ptr %outLen, align 4
  br label %if.end

if.end:                                           ; preds = %if.then4, %if.then
  br label %if.end9

if.end9:                                          ; preds = %if.end, %entry
  %12 = load ptr, ptr %text.addr, align 8
  %13 = load i32, ptr %start.addr, align 4
  %14 = load i32, ptr %limit.addr, align 4
  call void @_ZN6icu_7513UnicodeStringC2Ev(ptr noundef nonnull align 8 dereferenceable(64) %ref.tmp)
  %vtable10 = load ptr, ptr %12, align 8
  %vfn11 = getelementptr inbounds ptr, ptr %vtable10, i64 4
  %15 = load ptr, ptr %vfn11, align 8
  invoke void %15(ptr noundef nonnull align 8 dereferenceable(8) %12, i32 noundef %13, i32 noundef %14, ptr noundef nonnull align 8 dereferenceable(64) %ref.tmp)
          to label %invoke.cont unwind label %lpad

invoke.cont:                                      ; preds = %if.end9
  call void @_ZN6icu_7513UnicodeStringD1Ev(ptr noundef nonnull align 8 dereferenceable(64) %ref.tmp) #9
  %16 = load i32, ptr %outLen, align 4
  ret i32 %16

lpad:                                             ; preds = %if.end9
  %17 = landingpad { ptr, i32 }
          cleanup
  %18 = extractvalue { ptr, i32 } %17, 0
  store ptr %18, ptr %exn.slot, align 8
  %19 = extractvalue { ptr, i32 } %17, 1
  store i32 %19, ptr %ehselector.slot, align 4
  call void @_ZN6icu_7513UnicodeStringD1Ev(ptr noundef nonnull align 8 dereferenceable(64) %ref.tmp) #9
  br label %eh.resume

eh.resume:                                        ; preds = %lpad
  %exn = load ptr, ptr %exn.slot, align 8
  %sel = load i32, ptr %ehselector.slot, align 4
  %lpad.val = insertvalue { ptr, i32 } poison, ptr %exn, 0
  %lpad.val12 = insertvalue { ptr, i32 } %lpad.val, i32 %sel, 1
  resume { ptr, i32 } %lpad.val12
}

; Function Attrs: uwtable
define noundef i32 @_ZThn16_N6icu_7513StringMatcher7replaceERNS_11ReplaceableEiiRi(ptr noundef %this, ptr noundef nonnull align 8 dereferenceable(8) %text, i32 noundef %start, i32 noundef %limit, ptr noundef nonnull align 4 dereferenceable(4) %0) unnamed_addr #8 align 2 {
entry:
  %this.addr = alloca ptr, align 8
  %text.addr = alloca ptr, align 8
  %start.addr = alloca i32, align 4
  %limit.addr = alloca i32, align 4
  %.addr = alloca ptr, align 8
  store ptr %this, ptr %this.addr, align 8
  store ptr %text, ptr %text.addr, align 8
  store i32 %start, ptr %start.addr, align 4
  store i32 %limit, ptr %limit.addr, align 4
  store ptr %0, ptr %.addr, align 8
  %this1 = load ptr, ptr %this.addr, align 8
  %1 = getelementptr inbounds i8, ptr %this1, i64 -16
  %2 = load ptr, ptr %text.addr, align 8
  %3 = load i32, ptr %start.addr, align 4
  %4 = load i32, ptr %limit.addr, align 4
  %5 = load ptr, ptr %.addr, align 8
  %call = tail call noundef i32 @_ZN6icu_7513StringMatcher7replaceERNS_11ReplaceableEiiRi(ptr noundef nonnull align 8 dereferenceable(108) %1, ptr noundef nonnull align 8 dereferenceable(8) %2, i32 noundef %3, i32 noundef %4, ptr noundef nonnull align 4 dereferenceable(4) %5)
  ret i32 %call
}