; Function Attrs: uwtable
define noundef i32 @_ZThn16_N6icu_7513StringMatcher7replaceERNS_11ReplaceableEiiRi(ptr nocapture noundef readonly %this, ptr noundef nonnull align 8 dereferenceable(8) %text, i32 noundef %start, i32 noundef %limit, ptr nocapture nonnull readnone align 4 %0) unnamed_addr #9 align 2 personality ptr @__gxx_personality_v0 {
entry:
  %ref.tmp.i = alloca %"class.icu_75::UnicodeString", align 8
  call void @llvm.lifetime.start.p0(i64 64, ptr nonnull %ref.tmp.i)
  %matchStart.i = getelementptr inbounds i8, ptr %this, i64 84
  %1 = load i32, ptr %matchStart.i, align 4
  %cmp.i = icmp sgt i32 %1, -1
  br i1 %cmp.i, label %if.then.i, label %if.end9.i

if.then.i:                                        ; preds = %entry
  %matchLimit.i = getelementptr inbounds i8, ptr %this, i64 88
  %2 = load i32, ptr %matchLimit.i, align 8
  %cmp3.not.i = icmp eq i32 %1, %2
  br i1 %cmp3.not.i, label %if.end9.i, label %if.then4.i

if.then4.i:                                       ; preds = %if.then.i
  %vtable.i = load ptr, ptr %text, align 8
  %vfn.i = getelementptr inbounds i8, ptr %vtable.i, i64 40
  %3 = load ptr, ptr %vfn.i, align 8
  tail call void %3(ptr noundef nonnull align 8 dereferenceable(8) %text, i32 noundef %1, i32 noundef %2, i32 noundef %limit)
  %4 = load i32, ptr %matchLimit.i, align 8
  %5 = load i32, ptr %matchStart.i, align 4
  %sub.i = sub nsw i32 %4, %5
  br label %if.end9.i

if.end9.i:                                        ; preds = %if.then4.i, %if.then.i, %entry
  %outLen.0.i = phi i32 [ %sub.i, %if.then4.i ], [ 0, %if.then.i ], [ 0, %entry ]
  store ptr getelementptr inbounds ({ [13 x ptr] }, ptr @_ZTVN6icu_7513UnicodeStringE, i64 0, i32 0, i64 2), ptr %ref.tmp.i, align 8
  %fUnion2.i.i = getelementptr inbounds i8, ptr %ref.tmp.i, i64 8
  store i16 2, ptr %fUnion2.i.i, align 8
  %vtable10.i = load ptr, ptr %text, align 8
  %vfn11.i = getelementptr inbounds i8, ptr %vtable10.i, i64 32
  %6 = load ptr, ptr %vfn11.i, align 8
  invoke void %6(ptr noundef nonnull align 8 dereferenceable(8) %text, i32 noundef %start, i32 noundef %limit, ptr noundef nonnull align 8 dereferenceable(64) %ref.tmp.i)
          to label %_ZN6icu_7513StringMatcher7replaceERNS_11ReplaceableEiiRi.exit unwind label %lpad.i

lpad.i:                                           ; preds = %if.end9.i
  %7 = landingpad { ptr, i32 }
          cleanup
  call void @_ZN6icu_7513UnicodeStringD1Ev(ptr noundef nonnull align 8 dereferenceable(64) %ref.tmp.i) #13
  resume { ptr, i32 } %7

_ZN6icu_7513StringMatcher7replaceERNS_11ReplaceableEiiRi.exit: ; preds = %if.end9.i
  call void @_ZN6icu_7513UnicodeStringD1Ev(ptr noundef nonnull align 8 dereferenceable(64) %ref.tmp.i) #13
  call void @llvm.lifetime.end.p0(i64 64, ptr nonnull %ref.tmp.i)
  ret i32 %outLen.0.i
}